target datalayout = "e-m:e-p270:32:32-p271:32:32-p272:64:64-i64:64-i128:128-f80:128-n8:16:32:64-S128"
target triple = "x86_64-pc-linux-gnu"

%struct.opts_multi_pack_index = type { ptr, ptr, ptr, i64, i32, i32 }

@the_repository = external global ptr, align 8
@opts = internal global %struct.opts_multi_pack_index zeroinitializer, align 8
@.str.9 = private unnamed_addr constant [27 x i8] c"builtin/multi-pack-index.c\00", align 1
@builtin_multi_pack_index_repack_usage = internal constant [2 x ptr] [ptr @.str.10, ptr null], align 16

; Function Attrs: nounwind uwtable
define internal ptr @add_common_options(ptr noundef %0) #0 {
  %2 = alloca ptr, align 8
  store ptr %0, ptr %2, align 8, !tbaa !30
  %3 = load ptr, ptr %2, align 8, !tbaa !30
  %4 = call ptr @parse_options_concat(ptr noundef @common_opts, ptr noundef %3)
  ret ptr %4
}

; Function Attrs: nounwind uwtable
define internal i32 @cmd_multi_pack_index_repack(i32 noundef %0, ptr noundef %1, ptr noundef %2, ptr noundef %3) #0 {
  %5 = alloca i32, align 4
  %6 = alloca ptr, align 8
  %7 = alloca ptr, align 8
  %8 = alloca ptr, align 8
  %9 = alloca ptr, align 8
  store i32 %0, ptr %5, align 4, !tbaa !4
  store ptr %1, ptr %6, align 8, !tbaa !8
  store ptr %2, ptr %7, align 8, !tbaa !11
  store ptr %3, ptr %8, align 8, !tbaa !13
  call void @llvm.lifetime.start.p0(i64 8, ptr %9) #9
  %10 = call ptr @add_common_options(ptr noundef @cmd_multi_pack_index_repack.builtin_multi_pack_index_repack_options)
  store ptr %10, ptr %9, align 8, !tbaa !30
  %11 = load ptr, ptr %6, align 8, !tbaa !8
  %12 = getelementptr inbounds ptr, ptr %11, i64 0
  %13 = load ptr, ptr %12, align 8, !tbaa !11
  call void @trace2_cmd_mode_fl(ptr noundef @.str.9, i32 noundef 257, ptr noundef %13)
  %14 = call i32 @isatty(i32 noundef 2) #9
  %15 = icmp ne i32 %14, 0
  br i1 %15, label %16, label %19

16:                                               ; preds = %4
  %17 = load i32, ptr getelementptr inbounds nuw (%struct.opts_multi_pack_index, ptr @opts, i32 0, i32 4), align 8, !tbaa !69
  %18 = or i32 %17, 1
  store i32 %18, ptr getelementptr inbounds nuw (%struct.opts_multi_pack_index, ptr @opts, i32 0, i32 4), align 8, !tbaa !69
  br label %19

19:                                               ; preds = %16, %4
  %20 = load i32, ptr %5, align 4, !tbaa !4
  %21 = load ptr, ptr %6, align 8, !tbaa !8
  %22 = load ptr, ptr %7, align 8, !tbaa !11
  %23 = load ptr, ptr %9, align 8, !tbaa !30
  %24 = call i32 @parse_options(i32 noundef %20, ptr noundef %21, ptr noundef %22, ptr noundef %23, ptr noundef @builtin_multi_pack_index_repack_usage, i32 noundef 0)
  store i32 %24, ptr %5, align 4, !tbaa !4
  %25 = load i32, ptr %5, align 4, !tbaa !4
  %26 = icmp ne i32 %25, 0
  br i1 %26, label %27, label %29

27:                                               ; preds = %19
  %28 = load ptr, ptr %9, align 8, !tbaa !30
  call void @usage_with_options(ptr noundef @builtin_multi_pack_index_repack_usage, ptr noundef %28) #10
  unreachable

29:                                               ; preds = %19
  br label %30

30:                                               ; preds = %29
  %31 = load ptr, ptr %9, align 8, !tbaa !30
  call void @free(ptr noundef %31) #9
  store ptr null, ptr %9, align 8, !tbaa !30
  br label %32

32:                                               ; preds = %30
  br label %33

33:                                               ; preds = %32
  %34 = load ptr, ptr @the_repository, align 8, !tbaa !13
  %35 = load ptr, ptr @opts, align 8, !tbaa !67
  %36 = load i64, ptr getelementptr inbounds nuw (%struct.opts_multi_pack_index, ptr @opts, i32 0, i32 3), align 8, !tbaa !70
  %37 = load i32, ptr getelementptr inbounds nuw (%struct.opts_multi_pack_index, ptr @opts, i32 0, i32 4), align 8, !tbaa !69
  %38 = call i32 @midx_repack(ptr noundef %34, ptr noundef %35, i64 noundef %36, i32 noundef %37)
  call void @llvm.lifetime.end.p0(i64 8, ptr %9) #9
  ret i32 %38
}